target datalayout = "e-m:e-p270:32:32-p271:32:32-p272:64:64-i64:64-i128:128-f80:128-n8:16:32:64-S128"
target triple = "x86_64-pc-linux-gnu"

; Function Attrs: nounwind uwtable
define dso_local void @btbuildempty(ptr noundef %0) #0 {
  %2 = alloca ptr, align 8
  %3 = alloca i8, align 1
  %4 = alloca ptr, align 8
  %5 = alloca ptr, align 8
  store ptr %0, ptr %2, align 8
  call void @llvm.lifetime.start.p0(i64 1, ptr %3) #8
  %6 = load ptr, ptr %2, align 8
  %7 = call zeroext i1 @_bt_allequalimage(ptr noundef %6, i1 noundef zeroext false)
  %8 = zext i1 %7 to i8
  store i8 %8, ptr %3, align 1
  call void @llvm.lifetime.start.p0(i64 8, ptr %4) #8
  call void @llvm.lifetime.start.p0(i64 8, ptr %5) #8
  %9 = load ptr, ptr %2, align 8
  %10 = call ptr @smgr_bulk_start_rel(ptr noundef %9, i32 noundef 3)
  store ptr %10, ptr %4, align 8
  %11 = load ptr, ptr %4, align 8
  %12 = call ptr @smgr_bulk_get_buf(ptr noundef %11)
  store ptr %12, ptr %5, align 8
  %13 = load ptr, ptr %5, align 8
  %14 = load i8, ptr %3, align 1, !range !4, !noundef !5
  %15 = trunc i8 %14 to i1
  call void @_bt_initmetapage(ptr noundef %13, i32 noundef 0, i32 noundef 0, i1 noundef zeroext %15)
  %16 = load ptr, ptr %4, align 8
  %17 = load ptr, ptr %5, align 8
  call void @smgr_bulk_write(ptr noundef %16, i32 noundef 0, ptr noundef %17, i1 noundef zeroext true)
  %18 = load ptr, ptr %4, align 8
  call void @smgr_bulk_finish(ptr noundef %18)
  call void @llvm.lifetime.end.p0(i64 8, ptr %5) #8
  call void @llvm.lifetime.end.p0(i64 8, ptr %4) #8
  call void @llvm.lifetime.end.p0(i64 1, ptr %3) #8
  ret void
}