; Function Attrs: nounwind uwtable
define dso_local void @btbuildempty(ptr noundef %0) #0 {
  %2 = tail call zeroext i1 @_bt_allequalimage(ptr noundef %0, i1 noundef zeroext false) #8
  %3 = tail call ptr @smgr_bulk_start_rel(ptr noundef %0, i32 noundef 3) #8
  %4 = tail call ptr @smgr_bulk_get_buf(ptr noundef %3) #8
  tail call void @_bt_initmetapage(ptr noundef %4, i32 noundef 0, i32 noundef 0, i1 noundef zeroext %2) #8
  tail call void @smgr_bulk_write(ptr noundef %3, i32 noundef 0, ptr noundef %4, i1 noundef zeroext true) #8
  tail call void @smgr_bulk_finish(ptr noundef %3) #8
  ret void
}